target datalayout = "e-m:e-p270:32:32-p271:32:32-p272:64:64-i64:64-i128:128-f80:128-n8:16:32:64-S128"
target triple = "x86_64-pc-linux-gnu"

@.str.25 = private unnamed_addr constant [20 x i8] c"splashscreen-header\00", align 1

; Function Attrs: nounwind uwtable
define internal void @_set_header_bar(ptr noundef %0) #0 {
  %2 = alloca ptr, align 8
  %3 = alloca ptr, align 8
  %4 = alloca ptr, align 8
  store ptr %0, ptr %2, align 8, !tbaa !13
  call void @llvm.lifetime.start.p0(i64 8, ptr %3) #8
  %5 = load ptr, ptr %2, align 8, !tbaa !13
  %6 = call i64 @gtk_dialog_get_type() #9
  %7 = call ptr @g_type_check_instance_cast(ptr noundef %5, i64 noundef %6)
  %8 = call ptr @gtk_dialog_get_header_bar(ptr noundef %7)
  %9 = call i64 @gtk_header_bar_get_type() #9
  %10 = call ptr @g_type_check_instance_cast(ptr noundef %8, i64 noundef %9)
  store ptr %10, ptr %3, align 8, !tbaa !57
  %11 = load ptr, ptr %3, align 8, !tbaa !57
  %12 = call i64 @gtk_widget_get_type() #9
  %13 = call ptr @g_type_check_instance_cast(ptr noundef %11, i64 noundef %12)
  call void @gtk_widget_set_name(ptr noundef %13, ptr noundef @.str.25)
  call void @llvm.lifetime.start.p0(i64 8, ptr %4) #8
  %14 = call ptr @gtk_label_new(ptr noundef null)
  store ptr %14, ptr %4, align 8, !tbaa !13
  %15 = load ptr, ptr %3, align 8, !tbaa !57
  %16 = load ptr, ptr %4, align 8, !tbaa !13
  call void @gtk_header_bar_set_custom_title(ptr noundef %15, ptr noundef %16)
  %17 = load ptr, ptr %3, align 8, !tbaa !57
  call void @gtk_header_bar_set_has_subtitle(ptr noundef %17, i32 noundef 0)
  %18 = load ptr, ptr %3, align 8, !tbaa !57
  call void @gtk_header_bar_set_show_close_button(ptr noundef %18, i32 noundef 0)
  call void @llvm.lifetime.end.p0(i64 8, ptr %4) #8
  call void @llvm.lifetime.end.p0(i64 8, ptr %3) #8
  ret void
}