; Function Attrs: nounwind uwtable
define internal fastcc void @_set_header_bar(ptr noundef %0) unnamed_addr #0 {
  %2 = tail call i64 @gtk_dialog_get_type() #8
  %3 = tail call ptr @g_type_check_instance_cast(ptr noundef %0, i64 noundef %2) #7
  %4 = tail call ptr @gtk_dialog_get_header_bar(ptr noundef %3) #7
  %5 = tail call i64 @gtk_header_bar_get_type() #8
  %6 = tail call ptr @g_type_check_instance_cast(ptr noundef %4, i64 noundef %5) #7
  %7 = tail call i64 @gtk_widget_get_type() #8
  %8 = tail call ptr @g_type_check_instance_cast(ptr noundef %6, i64 noundef %7) #7
  tail call void @gtk_widget_set_name(ptr noundef %8, ptr noundef nonnull @.str.25) #7
  %9 = tail call ptr @gtk_label_new(ptr noundef null) #7
  tail call void @gtk_header_bar_set_custom_title(ptr noundef %6, ptr noundef %9) #7
  tail call void @gtk_header_bar_set_has_subtitle(ptr noundef %6, i32 noundef 0) #7
  tail call void @gtk_header_bar_set_show_close_button(ptr noundef %6, i32 noundef 0) #7
  ret void
}